; Function Attrs: mustprogress nofree norecurse nosync nounwind willreturn memory(argmem: read) uwtable
define internal range(i32 -1, 3) i32 @pg_euckr_verifychar(ptr noundef readonly captures(none) %0, i32 noundef %1) #0 {
  %3 = getelementptr inbounds nuw i8, ptr %0, i64 1
  %4 = load i8, ptr %0, align 1
  %.not = icmp sgt i8 %4, -1
  br i1 %.not, label %11, label %5

5:                                                ; preds = %2
  %6 = icmp sgt i32 %1, 1
  %7 = add nsw i8 %4, 95
  %or.cond = icmp ult i8 %7, 94
  %or.cond16 = select i1 %6, i1 %or.cond, i1 false
  br i1 %or.cond16, label %8, label %11

8:                                                ; preds = %5
  %9 = load i8, ptr %3, align 1
  %10 = add i8 %9, 95
  %or.cond5 = icmp ult i8 %10, 94
  %spec.select = select i1 %or.cond5, i32 2, i32 -1
  br label %11

11:                                               ; preds = %8, %2, %5
  %.0 = phi i32 [ -1, %5 ], [ 1, %2 ], [ %spec.select, %8 ]
  ret i32 %.0
}